target datalayout = "e-m:e-p270:32:32-p271:32:32-p272:64:64-i64:64-i128:128-f80:128-n8:16:32:64-S128"
target triple = "x86_64-pc-linux-gnu"

%"class.std::function" = type { %"class.std::_Function_base", ptr }
%"class.std::_Function_base" = type { %"union.std::_Any_data", ptr }
%"union.std::_Any_data" = type { %"union.std::_Nocopy_types" }
%"union.std::_Nocopy_types" = type { { i64, i64 } }
%"class.cv::ParallelLoopBodyLambdaWrapper" = type { %"class.cv::ParallelLoopBody", %"class.std::function" }
%"class.cv::ParallelLoopBody" = type { ptr }

@_ZTVN2cv16ParallelLoopBodyE = available_externally unnamed_addr constant { [5 x ptr] } { [5 x ptr] [ptr null, ptr @_ZTIN2cv16ParallelLoopBodyE, ptr @_ZN2cv16ParallelLoopBodyD1Ev, ptr @_ZN2cv16ParallelLoopBodyD0Ev, ptr @__cxa_pure_virtual] }, align 8

; Function Attrs: mustprogress nounwind uwtable
define linkonce_odr hidden noundef zeroext i1 @_ZNKSt14_Function_base8_M_emptyEv(ptr noundef nonnull align 8 dereferenceable(24) %0) #8 comdat align 2 {
  %2 = alloca ptr, align 8
  store ptr %0, ptr %2, align 8, !tbaa !105
  %3 = load ptr, ptr %2, align 8
  %4 = getelementptr inbounds nuw %"class.std::_Function_base", ptr %3, i32 0, i32 1
  %5 = load ptr, ptr %4, align 8, !tbaa !104
  %6 = icmp ne ptr %5, null
  %7 = xor i1 %6, true
  ret i1 %7
}

; Function Attrs: inlinehint mustprogress nounwind uwtable
define linkonce_odr hidden void @_ZN2cv16ParallelLoopBodyC2Ev(ptr noundef nonnull align 8 dereferenceable(8) %0) unnamed_addr #7 comdat align 2 {
  %2 = alloca ptr, align 8
  store ptr %0, ptr %2, align 8, !tbaa !417
  %3 = load ptr, ptr %2, align 8
  store ptr getelementptr inbounds inrange(-16, 24) ({ [5 x ptr] }, ptr @_ZTVN2cv16ParallelLoopBodyE, i32 0, i32 0, i32 2), ptr %3, align 8, !tbaa !12
  ret void
}

; Function Attrs: mustprogress nounwind uwtable
define linkonce_odr hidden noundef zeroext i1 @_ZNKSt8functionIFvRKN2cv5RangeEEEcvbEv(ptr noundef nonnull align 8 dereferenceable(32) %0) #8 comdat align 2 personality ptr @__gxx_personality_v0 {
  %2 = alloca ptr, align 8
  store ptr %0, ptr %2, align 8, !tbaa !93
  %3 = load ptr, ptr %2, align 8
  %4 = invoke noundef zeroext i1 @_ZNKSt14_Function_base8_M_emptyEv(ptr noundef nonnull align 8 dereferenceable(24) %3)
          to label %5 unwind label %7

5:                                                ; preds = %1
  %6 = xor i1 %4, true
  ret i1 %6

7:                                                ; preds = %1
  %8 = landingpad { ptr, i32 }
          catch ptr null
  %9 = extractvalue { ptr, i32 } %8, 0
  call void @__clang_call_terminate(ptr %9) #25
  unreachable
}

; Function Attrs: mustprogress nounwind uwtable
define linkonce_odr hidden void @_ZNSt14_Function_baseC2Ev(ptr noundef nonnull align 8 dereferenceable(24) %0) unnamed_addr #8 comdat align 2 {
  %2 = alloca ptr, align 8
  store ptr %0, ptr %2, align 8, !tbaa !105
  %3 = load ptr, ptr %2, align 8
  %4 = getelementptr inbounds nuw %"class.std::_Function_base", ptr %3, i32 0, i32 0
  store ptr null, ptr %4, align 8, !tbaa !271
  %5 = getelementptr inbounds nuw %"class.std::_Function_base", ptr %3, i32 0, i32 1
  store ptr null, ptr %5, align 8, !tbaa !104
  ret void
}

; Function Attrs: mustprogress nounwind uwtable
define linkonce_odr hidden void @_ZNSt14_Function_baseD2Ev(ptr noundef nonnull align 8 dereferenceable(24) %0) unnamed_addr #8 comdat align 2 personality ptr @__gxx_personality_v0 {
  %2 = alloca ptr, align 8
  store ptr %0, ptr %2, align 8, !tbaa !105
  %3 = load ptr, ptr %2, align 8
  %4 = getelementptr inbounds nuw %"class.std::_Function_base", ptr %3, i32 0, i32 1
  %5 = load ptr, ptr %4, align 8, !tbaa !104
  %6 = icmp ne ptr %5, null
  br i1 %6, label %7, label %14

7:                                                ; preds = %1
  %8 = getelementptr inbounds nuw %"class.std::_Function_base", ptr %3, i32 0, i32 1
  %9 = load ptr, ptr %8, align 8, !tbaa !104
  %10 = getelementptr inbounds nuw %"class.std::_Function_base", ptr %3, i32 0, i32 0
  %11 = getelementptr inbounds nuw %"class.std::_Function_base", ptr %3, i32 0, i32 0
  %12 = invoke noundef zeroext i1 %9(ptr noundef nonnull align 8 dereferenceable(16) %10, ptr noundef nonnull align 8 dereferenceable(16) %11, i32 noundef 3)
          to label %13 unwind label %15

13:                                               ; preds = %7
  br label %14

14:                                               ; preds = %13, %1
  ret void

15:                                               ; preds = %7
  %16 = landingpad { ptr, i32 }
          catch ptr null
  %17 = extractvalue { ptr, i32 } %16, 0
  call void @__clang_call_terminate(ptr %17) #25
  unreachable
}

; Function Attrs: inlinehint mustprogress uwtable
define linkonce_odr hidden void @_ZN2cv29ParallelLoopBodyLambdaWrapperC2ESt8functionIFvRKNS_5RangeEEE(ptr noundef nonnull align 8 dereferenceable(40) %0, ptr noundef %1) unnamed_addr #6 comdat align 2 personality ptr @__gxx_personality_v0 {
  %3 = alloca ptr, align 8
  %4 = alloca ptr, align 8
  %5 = alloca ptr, align 8
  %6 = alloca i32, align 4
  store ptr %0, ptr %3, align 8, !tbaa !415
  store ptr %1, ptr %4, align 8, !tbaa !93
  %7 = load ptr, ptr %3, align 8
  call void @_ZN2cv16ParallelLoopBodyC2Ev(ptr noundef nonnull align 8 dereferenceable(8) %7) #3
  store ptr getelementptr inbounds inrange(-16, 24) ({ [5 x ptr] }, ptr @_ZTVN2cv29ParallelLoopBodyLambdaWrapperE, i32 0, i32 0, i32 2), ptr %7, align 8, !tbaa !12
  %8 = getelementptr inbounds nuw %"class.cv::ParallelLoopBodyLambdaWrapper", ptr %7, i32 0, i32 1
  invoke void @_ZNSt8functionIFvRKN2cv5RangeEEEC2ERKS5_(ptr noundef nonnull align 8 dereferenceable(32) %8, ptr noundef nonnull align 8 dereferenceable(32) %1)
          to label %9 unwind label %10

9:                                                ; preds = %2
  ret void

10:                                               ; preds = %2
  %11 = landingpad { ptr, i32 }
          cleanup
  %12 = extractvalue { ptr, i32 } %11, 0
  store ptr %12, ptr %5, align 8
  %13 = extractvalue { ptr, i32 } %11, 1
  store i32 %13, ptr %6, align 4
  call void @_ZN2cv16ParallelLoopBodyD2Ev(ptr noundef nonnull align 8 dereferenceable(8) %7) #3
  br label %14

14:                                               ; preds = %10
  %15 = load ptr, ptr %5, align 8
  %16 = load i32, ptr %6, align 4
  %17 = insertvalue { ptr, i32 } poison, ptr %15, 0
  %18 = insertvalue { ptr, i32 } %17, i32 %16, 1
  resume { ptr, i32 } %18
}

; Function Attrs: mustprogress uwtable
define linkonce_odr hidden void @_ZNSt8functionIFvRKN2cv5RangeEEEC2ERKS5_(ptr noundef nonnull align 8 dereferenceable(32) %0, ptr noundef nonnull align 8 dereferenceable(32) %1) unnamed_addr #4 comdat align 2 personality ptr @__gxx_personality_v0 {
  %3 = alloca ptr, align 8
  %4 = alloca ptr, align 8
  %5 = alloca ptr, align 8
  %6 = alloca i32, align 4
  store ptr %0, ptr %3, align 8, !tbaa !93
  store ptr %1, ptr %4, align 8, !tbaa !93
  %7 = load ptr, ptr %3, align 8
  %8 = getelementptr inbounds i8, ptr %7, i64 0
  call void @llvm.memset.p0.i64(ptr align 8 %8, i8 0, i64 24, i1 false)
  call void @_ZNSt14_Function_baseC2Ev(ptr noundef nonnull align 8 dereferenceable(24) %7) #3
  %9 = getelementptr inbounds nuw %"class.std::function", ptr %7, i32 0, i32 1
  store ptr null, ptr %9, align 8, !tbaa !101
  %10 = load ptr, ptr %4, align 8, !tbaa !93
  %11 = call noundef zeroext i1 @_ZNKSt8functionIFvRKN2cv5RangeEEEcvbEv(ptr noundef nonnull align 8 dereferenceable(32) %10) #3
  br i1 %11, label %12, label %33

12:                                               ; preds = %2
  %13 = load ptr, ptr %4, align 8, !tbaa !93
  %14 = getelementptr inbounds nuw %"class.std::_Function_base", ptr %13, i32 0, i32 1
  %15 = load ptr, ptr %14, align 8, !tbaa !104
  %16 = getelementptr inbounds nuw %"class.std::_Function_base", ptr %7, i32 0, i32 0
  %17 = load ptr, ptr %4, align 8, !tbaa !93
  %18 = getelementptr inbounds nuw %"class.std::_Function_base", ptr %17, i32 0, i32 0
  %19 = invoke noundef zeroext i1 %15(ptr noundef nonnull align 8 dereferenceable(16) %16, ptr noundef nonnull align 8 dereferenceable(16) %18, i32 noundef 2)
          to label %20 unwind label %29

20:                                               ; preds = %12
  %21 = load ptr, ptr %4, align 8, !tbaa !93
  %22 = getelementptr inbounds nuw %"class.std::function", ptr %21, i32 0, i32 1
  %23 = load ptr, ptr %22, align 8, !tbaa !101
  %24 = getelementptr inbounds nuw %"class.std::function", ptr %7, i32 0, i32 1
  store ptr %23, ptr %24, align 8, !tbaa !101
  %25 = load ptr, ptr %4, align 8, !tbaa !93
  %26 = getelementptr inbounds nuw %"class.std::_Function_base", ptr %25, i32 0, i32 1
  %27 = load ptr, ptr %26, align 8, !tbaa !104
  %28 = getelementptr inbounds nuw %"class.std::_Function_base", ptr %7, i32 0, i32 1
  store ptr %27, ptr %28, align 8, !tbaa !104
  br label %33

29:                                               ; preds = %12
  %30 = landingpad { ptr, i32 }
          cleanup
  %31 = extractvalue { ptr, i32 } %30, 0
  store ptr %31, ptr %5, align 8
  %32 = extractvalue { ptr, i32 } %30, 1
  store i32 %32, ptr %6, align 4
  call void @_ZNSt14_Function_baseD2Ev(ptr noundef nonnull align 8 dereferenceable(24) %7) #3
  br label %34

33:                                               ; preds = %20, %2
  ret void

34:                                               ; preds = %29
  %35 = load ptr, ptr %5, align 8
  %36 = load i32, ptr %6, align 4
  %37 = insertvalue { ptr, i32 } poison, ptr %35, 0
  %38 = insertvalue { ptr, i32 } %37, i32 %36, 1
  resume { ptr, i32 } %38
}

; Function Attrs: inlinehint mustprogress uwtable
define internal void @_ZN2cvL13parallel_for_ERKNS_5RangeESt8functionIFvS2_EEd(ptr noundef nonnull align 4 dereferenceable(8) %0, ptr noundef %1, double noundef %2) #6 personality ptr @__gxx_personality_v0 {
  %4 = alloca ptr, align 8
  %5 = alloca ptr, align 8
  %6 = alloca double, align 8
  %7 = alloca %"class.cv::ParallelLoopBodyLambdaWrapper", align 8
  %8 = alloca %"class.std::function", align 8
  %9 = alloca ptr, align 8
  %10 = alloca i32, align 4
  store ptr %0, ptr %4, align 8, !tbaa !91
  store ptr %1, ptr %5, align 8, !tbaa !93
  store double %2, ptr %6, align 8, !tbaa !51
  %11 = load ptr, ptr %4, align 8, !tbaa !91
  call void @llvm.lifetime.start.p0(i64 40, ptr %7) #3
  call void @_ZNSt8functionIFvRKN2cv5RangeEEEC2ERKS5_(ptr noundef nonnull align 8 dereferenceable(32) %8, ptr noundef nonnull align 8 dereferenceable(32) %1)
  invoke void @_ZN2cv29ParallelLoopBodyLambdaWrapperC2ESt8functionIFvRKNS_5RangeEEE(ptr noundef nonnull align 8 dereferenceable(40) %7, ptr noundef %8)
          to label %12 unwind label %15

12:                                               ; preds = %3
  %13 = load double, ptr %6, align 8, !tbaa !51
  invoke void @_ZN2cv13parallel_for_ERKNS_5RangeERKNS_16ParallelLoopBodyEd(ptr noundef nonnull align 4 dereferenceable(8) %11, ptr noundef nonnull align 8 dereferenceable(8) %7, double noundef %13)
          to label %14 unwind label %19

14:                                               ; preds = %12
  call void @_ZN2cv29ParallelLoopBodyLambdaWrapperD2Ev(ptr noundef nonnull align 8 dereferenceable(40) %7) #3
  call void @_ZNSt14_Function_baseD2Ev(ptr noundef nonnull align 8 dereferenceable(32) %8) #3
  call void @llvm.lifetime.end.p0(i64 40, ptr %7) #3
  ret void

15:                                               ; preds = %3
  %16 = landingpad { ptr, i32 }
          cleanup
  %17 = extractvalue { ptr, i32 } %16, 0
  store ptr %17, ptr %9, align 8
  %18 = extractvalue { ptr, i32 } %16, 1
  store i32 %18, ptr %10, align 4
  br label %23

19:                                               ; preds = %12
  %20 = landingpad { ptr, i32 }
          cleanup
  %21 = extractvalue { ptr, i32 } %20, 0
  store ptr %21, ptr %9, align 8
  %22 = extractvalue { ptr, i32 } %20, 1
  store i32 %22, ptr %10, align 4
  call void @_ZN2cv29ParallelLoopBodyLambdaWrapperD2Ev(ptr noundef nonnull align 8 dereferenceable(40) %7) #3
  br label %23

23:                                               ; preds = %19, %15
  call void @_ZNSt14_Function_baseD2Ev(ptr noundef nonnull align 8 dereferenceable(32) %8) #3
  call void @llvm.lifetime.end.p0(i64 40, ptr %7) #3
  br label %24

24:                                               ; preds = %23
  %25 = load ptr, ptr %9, align 8
  %26 = load i32, ptr %10, align 4
  %27 = insertvalue { ptr, i32 } poison, ptr %25, 0
  %28 = insertvalue { ptr, i32 } %27, i32 %26, 1
  resume { ptr, i32 } %28
}